; Function Attrs: mustprogress nofree norecurse nosync nounwind ssp willreturn memory(argmem: readwrite) uwtable
define internal noundef zeroext i1 @"_ZNSt17_Function_handlerIFbRKSt10shared_ptrIN6open3d8geometry10OctreeNodeEERKS0_INS2_14OctreeNodeInfoEEEZNS1_13visualization4glsl25SimpleShaderForOctreeLine14PrepareBindingERKNS2_8GeometryERKNSC_12RenderOptionERKNSC_11ViewControlERSt6vectorIN5Eigen6MatrixIfLi3ELi1ELi0ELi3ELi1EEESaISR_EESU_E3$_0E10_M_managerERSt9_Any_dataRKSX_St18_Manager_operation"(ptr noundef nonnull writeonly align 8 captures(none) dereferenceable(16) %0, ptr noundef nonnull align 8 dereferenceable(16) %1, i32 noundef %2) #17 align 2 personality ptr @__gxx_personality_v0 {
  switch i32 %2, label %"_ZNSt14_Function_base13_Base_managerIZN6open3d13visualization4glsl25SimpleShaderForOctreeLine14PrepareBindingERKNS1_8geometry8GeometryERKNS2_12RenderOptionERKNS2_11ViewControlERSt6vectorIN5Eigen6MatrixIfLi3ELi1ELi0ELi3ELi1EEESaISI_EESL_E3$_0E10_M_managerERSt9_Any_dataRKSO_St18_Manager_operation.exit" [
    i32 0, label %4
    i32 1, label %5
    i32 2, label %6
  ]

4:                                                ; preds = %3
  store ptr @"_ZTIZN6open3d13visualization4glsl25SimpleShaderForOctreeLine14PrepareBindingERKNS_8geometry8GeometryERKNS0_12RenderOptionERKNS0_11ViewControlERSt6vectorIN5Eigen6MatrixIfLi3ELi1ELi0ELi3ELi1EEESaISG_EESJ_E3$_0", ptr %0, align 8, !tbaa !305
  br label %"_ZNSt14_Function_base13_Base_managerIZN6open3d13visualization4glsl25SimpleShaderForOctreeLine14PrepareBindingERKNS1_8geometry8GeometryERKNS2_12RenderOptionERKNS2_11ViewControlERSt6vectorIN5Eigen6MatrixIfLi3ELi1ELi0ELi3ELi1EEESaISI_EESL_E3$_0E10_M_managerERSt9_Any_dataRKSO_St18_Manager_operation.exit"

5:                                                ; preds = %3
  store ptr %1, ptr %0, align 8, !tbaa !16
  br label %"_ZNSt14_Function_base13_Base_managerIZN6open3d13visualization4glsl25SimpleShaderForOctreeLine14PrepareBindingERKNS1_8geometry8GeometryERKNS2_12RenderOptionERKNS2_11ViewControlERSt6vectorIN5Eigen6MatrixIfLi3ELi1ELi0ELi3ELi1EEESaISI_EESL_E3$_0E10_M_managerERSt9_Any_dataRKSO_St18_Manager_operation.exit"

6:                                                ; preds = %3
  tail call void @llvm.memcpy.p0.p0.i64(ptr noundef nonnull align 8 dereferenceable(16) %0, ptr noundef nonnull readonly align 8 dereferenceable(16) %1, i64 16, i1 false), !tbaa.struct !334
  br label %"_ZNSt14_Function_base13_Base_managerIZN6open3d13visualization4glsl25SimpleShaderForOctreeLine14PrepareBindingERKNS1_8geometry8GeometryERKNS2_12RenderOptionERKNS2_11ViewControlERSt6vectorIN5Eigen6MatrixIfLi3ELi1ELi0ELi3ELi1EEESaISI_EESL_E3$_0E10_M_managerERSt9_Any_dataRKSO_St18_Manager_operation.exit"

"_ZNSt14_Function_base13_Base_managerIZN6open3d13visualization4glsl25SimpleShaderForOctreeLine14PrepareBindingERKNS1_8geometry8GeometryERKNS2_12RenderOptionERKNS2_11ViewControlERSt6vectorIN5Eigen6MatrixIfLi3ELi1ELi0ELi3ELi1EEESaISI_EESL_E3$_0E10_M_managerERSt9_Any_dataRKSO_St18_Manager_operation.exit": ; preds = %3, %6, %5, %4
  ret i1 false
}